-----BEGIN RSA PRIVATE KEY-----
MIICXAIBAAKBgQDEN87OLUNlf+zp/JdWhTT7MSqO22FCxSludQaTj4rgBUNW4Pi6
7RKA8k4ndBWm8B6fbyzZJXysIpfwTEi1Egw/V7hAXRmiVzbp45Tk069gWpZZyrls
DN5vQU1iqs8Gb+XGl9yfY8yUsjgZyQrcO5px6xhkA2woPdAshh2utiLP4QIDAQAB
AoGAA/VEPLB5DZEZDFdGDj69pNuHCj6upZQok8vUiCF7Ia25gAUlv0+M8gDxRqZ2
0VlCpOCvPOoeq7I+8l/3j39/s7ZZEmBvDqE52qTWfJdLUHMRo5l105l5vHeT/Spu
WDOhjI0Kosmv0vUOt/L0OLqFjVx8hKwvxqcdk9+aJQSNqikCQQDspKUlVRteX5Nm
S02TjApkPMJuCvl4CSHWApRdM3CwTjdYJUkGqlERlMcqpvjcq8LqfdZa1TlIfJZy
0JvXWN1/AkEA1ESm7q3bu/FPxX38YE02hHgO0oeDXr2wT7THo0tLAXrdXhUYVagk
eTJtBJorpobpedl1H2a/JhSnRmuMu2nCnwJBANRf7tZSSv2nSOHFMxn31FuhK90W
fEz95R/rsLr0L24KxCCXVbJlp9vfad8derqQa52G0ZkzQvWK2nqwPSxG1IECQErB
1uzObEnXpdmPElg0OVQUGFxK/5hZRAP+TiUTeloOFHJzCXv5WMcaXEy3o1Hlx8pz
LI2fmQhnU7Y4YHsMt08CQD6bcCAbcpHF6ZcaAM2XVOIe8TzUbYuuP7VaeBOCVQCH
j/wCY51gfrhi54YSZyGlO51kvTIrQxz/+ADXoU5427g=
-----END RSA PRIVATE KEY-----
Certificate:
    Data:
        Version: 1 (0x0)
        Serial Number: 1 (0x1)
        Signature Algorithm: md5WithRSAEncryption
        Issuer: O=ADI, L=Metropolis, ST=New York, C=US, CN=10.100.4.50
        Validity
            Not Before: Feb 23 03:51:19 2006 GMT
            Not After : Feb 23 03:51:19 2007 GMT
        Subject: C=US, ST=New York, O=ADI, CN=10.100.4.50
        Subject Public Key Info:
            Public Key Algorithm: rsaEncryption
            RSA Public Key: (1024 bit)
                Modulus (1024 bit):
                    00:c4:37:ce:ce:2d:43:65:7f:ec:e9:fc:97:56:85:
                    34:fb:31:2a:8e:db:61:42:c5:29:6e:75:06:93:8f:
                    8a:e0:05:43:56:e0:f8:ba:ed:12:80:f2:4e:27:74:
                    15:a6:f0:1e:9f:6f:2c:d9:25:7c:ac:22:97:f0:4c:
                    48:b5:12:0c:3f:57:b8:40:5d:19:a2:57:36:e9:e3:
                    94:e4:d3:af:60:5a:96:59:ca:b9:6c:0c:de:6f:41:
                    4d:62:aa:cf:06:6f:e5:c6:97:dc:9f:63:cc:94:b2:
                    38:19:c9:0a:dc:3b:9a:71:eb:18:64:03:6c:28:3d:
                    d0:2c:86:1d:ae:b6:22:cf:e1
                Exponent: 65537 (0x10001)
    Signature Algorithm: md5WithRSAEncryption
        45:1c:27:0f:9e:d1:4b:7e:57:ed:21:9c:c5:68:6a:47:10:89:
        46:7c:c6:79:da:f9:43:e0:b1:9d:cc:80:0a:cf:2f:4b:92:57:
        d0:9b:ab:79:47:01:8f:b1:23:c2:cb:cb:3c:e2:a2:41:d3:d6:
        90:e7:f2:ca:23:aa:e4:73:68:14:6a:6b:e7:3b:81:c8:1a:30:
        5c:0f:a2:65:ce:23:54:1e:5f:1a:4e:89:73:f8:70:92:72:55:
        c7:e7:73:db:5a:71:bd:3c:3f:d0:e7:5d:4f:79:ac:4a:cc:6e:
        a3:7f:f5:eb:e9:14:58:38:e0:aa:25:f1:6c:26:5f:18:5b:a7:
        01:a3
-----BEGIN CERTIFICATE-----
MIICDDCCAXUCAQEwDQYJKoZIhvcNAQEEBQAwWTEMMAoGA1UEChMDQURJMRMwEQYD
VQQHEwpNZXRyb3BvbGlzMREwDwYDVQQIEwhOZXcgWW9yazELMAkGA1UEBhMCVVMx
FDASBgNVBAMTCzEwLjEwMC40LjUwMB4XDTA2MDIyMzAzNTExOVoXDTA3MDIyMzAz
NTExOVowRDELMAkGA1UEBhMCVVMxETAPBgNVBAgTCE5ldyBZb3JrMQwwCgYDVQQK
EwNBREkxFDASBgNVBAMTCzEwLjEwMC40LjUwMIGfMA0GCSqGSIb3DQEBAQUAA4GN
ADCBiQKBgQDEN87OLUNlf+zp/JdWhTT7MSqO22FCxSludQaTj4rgBUNW4Pi67RKA
8k4ndBWm8B6fbyzZJXysIpfwTEi1Egw/V7hAXRmiVzbp45Tk069gWpZZyrlsDN5v
QU1iqs8Gb+XGl9yfY8yUsjgZyQrcO5px6xhkA2woPdAshh2utiLP4QIDAQABMA0G
CSqGSIb3DQEBBAUAA4GBAEUcJw+e0Ut+V+0hnMVoakcQiUZ8xnna+UPgsZ3MgArP
L0uSV9Cbq3lHAY+xI8LLyzziokHT1pDn8sojquRzaBRqa+c7gcgaMFwPomXOI1Qe
XxpOiXP4cJJyVcfnc9tacb08P9DnXU95rErMbqN/9evpFFg44Kol8WwmXxhbpwGj
-----END CERTIFICATE-----
